target datalayout = "e-m:e-p270:32:32-p271:32:32-p272:64:64-i64:64-i128:128-f80:128-n8:16:32:64-S128"
target triple = "x86_64-pc-linux-gnu"

%struct.tag_PortMixerDescription = type { [200 x i8], [200 x i8], [200 x i8], [200 x i8] }

@.str = private unnamed_addr constant [6 x i8] c"hw:%d\00", align 1
@.str.1 = private unnamed_addr constant [6 x i8] c" [%s]\00", align 1
@.str.2 = private unnamed_addr constant [35 x i8] c"ALSA (http://www.alsa-project.org)\00", align 1
@.str.3 = private unnamed_addr constant [3 x i8] c", \00", align 1

; Function Attrs: nounwind uwtable
define hidden i32 @PORT_GetPortMixerDescription(i32 noundef %0, ptr noundef %1) #0 {
  %3 = alloca i32, align 4
  %4 = alloca i32, align 4
  %5 = alloca ptr, align 8
  %6 = alloca ptr, align 8
  %7 = alloca ptr, align 8
  %8 = alloca [16 x i8], align 16
  %9 = alloca i32, align 4
  %10 = alloca [100 x i8], align 16
  store i32 %0, ptr %4, align 4
  store ptr %1, ptr %5, align 8
  %11 = call i32 @snd_ctl_card_info_malloc(ptr noundef %7)
  %12 = getelementptr inbounds [16 x i8], ptr %8, i64 0, i64 0
  %13 = load i32, ptr %4, align 4
  %14 = call i32 (ptr, i64, ptr, ...) @snprintf(ptr noundef %12, i64 noundef 16, ptr noundef @.str, i32 noundef %13) #7
  %15 = getelementptr inbounds [16 x i8], ptr %8, i64 0, i64 0
  %16 = call i32 @snd_ctl_open(ptr noundef %6, ptr noundef %15, i32 noundef 0)
  store i32 %16, ptr %9, align 4
  %17 = load i32, ptr %9, align 4
  %18 = icmp slt i32 %17, 0
  br i1 %18, label %19, label %20

19:                                               ; preds = %2
  store i32 0, ptr %3, align 4
  br label %83

20:                                               ; preds = %2
  %21 = load ptr, ptr %6, align 8
  %22 = load ptr, ptr %7, align 8
  %23 = call i32 @snd_ctl_card_info(ptr noundef %21, ptr noundef %22)
  store i32 %23, ptr %9, align 4
  %24 = load i32, ptr %9, align 4
  %25 = icmp slt i32 %24, 0
  br i1 %25, label %26, label %27

26:                                               ; preds = %20
  br label %27

27:                                               ; preds = %26, %20
  %28 = load ptr, ptr %5, align 8
  %29 = getelementptr inbounds %struct.tag_PortMixerDescription, ptr %28, i32 0, i32 0
  %30 = getelementptr inbounds [200 x i8], ptr %29, i64 0, i64 0
  %31 = load ptr, ptr %7, align 8
  %32 = call ptr @snd_ctl_card_info_get_id(ptr noundef %31)
  %33 = call ptr @strncpy(ptr noundef %30, ptr noundef %32, i64 noundef 199) #7
  %34 = getelementptr inbounds [100 x i8], ptr %10, i64 0, i64 0
  %35 = getelementptr inbounds [16 x i8], ptr %8, i64 0, i64 0
  %36 = call i32 (ptr, i64, ptr, ...) @snprintf(ptr noundef %34, i64 noundef 100, ptr noundef @.str.1, ptr noundef %35) #7
  %37 = load ptr, ptr %5, align 8
  %38 = getelementptr inbounds %struct.tag_PortMixerDescription, ptr %37, i32 0, i32 0
  %39 = getelementptr inbounds [200 x i8], ptr %38, i64 0, i64 0
  %40 = getelementptr inbounds [100 x i8], ptr %10, i64 0, i64 0
  %41 = load ptr, ptr %5, align 8
  %42 = getelementptr inbounds %struct.tag_PortMixerDescription, ptr %41, i32 0, i32 0
  %43 = getelementptr inbounds [200 x i8], ptr %42, i64 0, i64 0
  %44 = call i64 @strlen(ptr noundef %43) #8
  %45 = sub i64 199, %44
  %46 = call ptr @strncat(ptr noundef %39, ptr noundef %40, i64 noundef %45) #7
  %47 = load ptr, ptr %5, align 8
  %48 = getelementptr inbounds %struct.tag_PortMixerDescription, ptr %47, i32 0, i32 1
  %49 = getelementptr inbounds [200 x i8], ptr %48, i64 0, i64 0
  %50 = call ptr @strncpy(ptr noundef %49, ptr noundef @.str.2, i64 noundef 199) #7
  %51 = load ptr, ptr %5, align 8
  %52 = getelementptr inbounds %struct.tag_PortMixerDescription, ptr %51, i32 0, i32 2
  %53 = getelementptr inbounds [200 x i8], ptr %52, i64 0, i64 0
  %54 = load ptr, ptr %7, align 8
  %55 = call ptr @snd_ctl_card_info_get_name(ptr noundef %54)
  %56 = call ptr @strncpy(ptr noundef %53, ptr noundef %55, i64 noundef 199) #7
  %57 = load ptr, ptr %5, align 8
  %58 = getelementptr inbounds %struct.tag_PortMixerDescription, ptr %57, i32 0, i32 2
  %59 = getelementptr inbounds [200 x i8], ptr %58, i64 0, i64 0
  %60 = load ptr, ptr %5, align 8
  %61 = getelementptr inbounds %struct.tag_PortMixerDescription, ptr %60, i32 0, i32 2
  %62 = getelementptr inbounds [200 x i8], ptr %61, i64 0, i64 0
  %63 = call i64 @strlen(ptr noundef %62) #8
  %64 = sub i64 199, %63
  %65 = call ptr @strncat(ptr noundef %59, ptr noundef @.str.3, i64 noundef %64) #7
  %66 = load ptr, ptr %5, align 8
  %67 = getelementptr inbounds %struct.tag_PortMixerDescription, ptr %66, i32 0, i32 2
  %68 = getelementptr inbounds [200 x i8], ptr %67, i64 0, i64 0
  %69 = load ptr, ptr %7, align 8
  %70 = call ptr @snd_ctl_card_info_get_mixername(ptr noundef %69)
  %71 = load ptr, ptr %5, align 8
  %72 = getelementptr inbounds %struct.tag_PortMixerDescription, ptr %71, i32 0, i32 2
  %73 = getelementptr inbounds [200 x i8], ptr %72, i64 0, i64 0
  %74 = call i64 @strlen(ptr noundef %73) #8
  %75 = sub i64 199, %74
  %76 = call ptr @strncat(ptr noundef %68, ptr noundef %70, i64 noundef %75) #7
  %77 = load ptr, ptr %5, align 8
  %78 = getelementptr inbounds %struct.tag_PortMixerDescription, ptr %77, i32 0, i32 3
  %79 = getelementptr inbounds [200 x i8], ptr %78, i64 0, i64 0
  call void @getALSAVersion(ptr noundef %79, i32 noundef 199)
  %80 = load ptr, ptr %6, align 8
  %81 = call i32 @snd_ctl_close(ptr noundef %80)
  %82 = load ptr, ptr %7, align 8
  call void @snd_ctl_card_info_free(ptr noundef %82)
  store i32 1, ptr %3, align 4
  br label %83

83:                                               ; preds = %27, %19
  %84 = load i32, ptr %3, align 4
  ret i32 %84
}