; Function Attrs: nounwind uwtable
define hidden range(i32 0, 2) i32 @PORT_GetPortMixerDescription(i32 noundef %0, ptr noundef %1) local_unnamed_addr #0 {
  %3 = alloca ptr, align 8
  %4 = alloca ptr, align 8
  %5 = alloca [16 x i8], align 16
  %6 = alloca [100 x i8], align 16
  %7 = call i32 @snd_ctl_card_info_malloc(ptr noundef nonnull %4) #11
  %8 = call i32 (ptr, i64, ptr, ...) @snprintf(ptr noundef nonnull dereferenceable(1) %5, i64 noundef 16, ptr noundef nonnull @.str, i32 noundef %0) #11
  %9 = call i32 @snd_ctl_open(ptr noundef nonnull %3, ptr noundef nonnull %5, i32 noundef 0) #11
  %10 = icmp slt i32 %9, 0
  br i1 %10, label %40, label %11

11:                                               ; preds = %2
  %12 = load ptr, ptr %3, align 8
  %13 = load ptr, ptr %4, align 8
  %14 = call i32 @snd_ctl_card_info(ptr noundef %12, ptr noundef %13) #11
  %15 = load ptr, ptr %4, align 8
  %16 = call ptr @snd_ctl_card_info_get_id(ptr noundef %15) #11
  %17 = call ptr @strncpy(ptr noundef nonnull dereferenceable(1) %1, ptr noundef nonnull dereferenceable(1) %16, i64 noundef 199) #11
  %18 = call i32 (ptr, i64, ptr, ...) @snprintf(ptr noundef nonnull dereferenceable(1) %6, i64 noundef 100, ptr noundef nonnull @.str.1, ptr noundef nonnull %5) #11
  %19 = call i64 @strlen(ptr noundef nonnull dereferenceable(1) %1) #12
  %20 = sub i64 199, %19
  %21 = call ptr @strncat(ptr noundef nonnull dereferenceable(1) %1, ptr noundef nonnull %6, i64 noundef %20) #11
  %22 = getelementptr inbounds i8, ptr %1, i64 200
  %23 = call ptr @strncpy(ptr noundef nonnull dereferenceable(1) %22, ptr noundef nonnull dereferenceable(35) @.str.2, i64 noundef 199) #11
  %24 = getelementptr inbounds i8, ptr %1, i64 400
  %25 = load ptr, ptr %4, align 8
  %26 = call ptr @snd_ctl_card_info_get_name(ptr noundef %25) #11
  %27 = call ptr @strncpy(ptr noundef nonnull dereferenceable(1) %24, ptr noundef nonnull dereferenceable(1) %26, i64 noundef 199) #11
  %28 = call i64 @strlen(ptr noundef nonnull dereferenceable(1) %24) #12
  %29 = sub i64 199, %28
  %30 = call ptr @strncat(ptr noundef nonnull dereferenceable(1) %24, ptr noundef nonnull @.str.3, i64 noundef %29) #11
  %31 = load ptr, ptr %4, align 8
  %32 = call ptr @snd_ctl_card_info_get_mixername(ptr noundef %31) #11
  %33 = call i64 @strlen(ptr noundef nonnull dereferenceable(1) %24) #12
  %34 = sub i64 199, %33
  %35 = call ptr @strncat(ptr noundef nonnull dereferenceable(1) %24, ptr noundef %32, i64 noundef %34) #11
  %36 = getelementptr inbounds i8, ptr %1, i64 600
  call void @getALSAVersion(ptr noundef nonnull %36, i32 noundef 199) #11
  %37 = load ptr, ptr %3, align 8
  %38 = call i32 @snd_ctl_close(ptr noundef %37) #11
  %39 = load ptr, ptr %4, align 8
  call void @snd_ctl_card_info_free(ptr noundef %39) #11
  br label %40

40:                                               ; preds = %2, %11
  %.0 = phi i32 [ 1, %11 ], [ 0, %2 ]
  ret i32 %.0
}